Certificate Request:
    Data:
        Version: 0 (0x0)
        Subject: CN=localhost
        Subject Public Key Info:
            Public Key Algorithm: rsaEncryption
                Public-Key: (2048 bit)
                Modulus:
                    00:fe:67:ac:8c:ae:73:bc:4d:8c:35:d4:c2:61:72:
                    00:2c:92:73:3c:f5:38:91:2b:f6:19:31:c3:c4:04:
                    cd:11:3b:1b:3f:fb:da:0e:fd:ec:13:f7:89:0e:7a:
                    2d:e3:da:fd:ec:2e:3e:d3:13:8c:f5:b2:a1:bf:3a:
                    3e:03:c6:4c:06:dd:04:18:14:7e:08:3d:b4:20:87:
                    1a:ab:0f:76:a2:32:6b:e9:1c:1b:51:65:68:0f:be:
                    ca:c4:be:d3:4b:79:e6:e4:83:49:b7:1b:d8:9d:19:
                    f5:4a:f8:6d:fd:92:41:dd:a7:48:aa:ae:d9:dc:cf:
                    c1:9a:42:68:3b:9c:38:f8:0e:69:59:81:38:67:b2:
                    0e:be:52:4c:65:d7:1d:fe:ac:49:37:4f:6d:e8:72:
                    a4:49:b8:fe:9e:e7:c3:08:91:b8:49:c1:68:3b:1b:
                    7b:df:40:a8:6a:06:c6:dc:85:f2:98:0f:d8:05:12:
                    99:5f:e4:ba:41:e3:2a:45:86:60:95:63:42:44:93:
                    a3:0d:7a:2e:28:c6:1f:8a:79:88:52:1b:55:bc:d5:
                    f8:76:91:fa:75:46:99:57:9d:4d:70:48:b1:5e:ed:
                    0c:26:d8:4f:5e:61:51:fa:8c:4e:c0:79:cf:ed:12:
                    6b:2a:a4:4d:39:e1:6f:a1:b7:23:4f:1e:83:8c:0b:
                    56:4d
                Exponent: 65537 (0x10001)
        Attributes:
            a0:00
    Signature Algorithm: sha256WithRSAEncryption
         49:48:dd:31:cb:59:8f:06:2e:69:66:31:97:d7:f9:0c:aa:26:
         84:c3:89:cc:7f:e7:92:bb:e6:e3:73:51:37:21:de:88:40:9f:
         eb:15:4d:c2:5e:43:b4:e1:8c:31:02:0f:fc:fe:f2:4f:f3:c6:
         5e:7a:9d:d2:42:d0:62:66:db:59:f1:70:b7:e4:a2:9c:fe:ab:
         74:37:3d:65:0c:02:59:d7:a0:fc:25:b8:b6:21:36:40:17:80:
         50:f7:a6:57:75:c7:12:57:e2:16:a1:20:2e:46:41:7a:48:ef:
         c8:7b:c0:a6:ce:0d:19:74:db:9c:f4:a4:ca:55:3c:52:b9:97:
         3a:ef:74:e7:04:aa:eb:b0:41:91:dd:46:10:a7:81:88:51:1d:
         11:6a:15:de:d9:eb:79:bb:9d:a1:27:85:0f:24:d0:9a:1f:a4:
         3a:c2:41:f6:19:6f:01:4e:04:53:2f:5e:74:d8:e1:eb:ca:08:
         ce:25:62:ed:9f:50:f9:86:f0:6d:99:c2:51:95:65:77:6e:24:
         a5:be:f2:65:fc:6e:72:48:37:78:58:f8:ec:6d:5e:27:1e:f3:
         fe:98:a6:6e:d5:9b:8d:2d:02:c7:24:75:4a:7e:db:e0:2b:ac:
         fc:8a:2d:dd:7a:01:fc:ae:4d:a2:5a:47:c5:bd:e4:74:b0:67:
         df:82:95:09
-----BEGIN CERTIFICATE REQUEST-----
MIICWTCCAUECAQAwFDESMBAGA1UEAwwJbG9jYWxob3N0MIIBIjANBgkqhkiG9w0B
AQEFAAOCAQ8AMIIBCgKCAQEA/mesjK5zvE2MNdTCYXIALJJzPPU4kSv2GTHDxATN
ETsbP/vaDv3sE/eJDnot49r97C4+0xOM9bKhvzo+A8ZMBt0EGBR+CD20IIcaqw92
ojJr6RwbUWVoD77KxL7TS3nm5INJtxvYnRn1Svht/ZJB3adIqq7Z3M/BmkJoO5w4
+A5pWYE4Z7IOvlJMZdcd/qxJN09t6HKkSbj+nufDCJG4ScFoOxt730CoagbG3IXy
mA/YBRKZX+S6QeMqRYZglWNCRJOjDXouKMYfinmIUhtVvNX4dpH6dUaZV51NcEix
Xu0MJthPXmFR+oxOwHnP7RJrKqRNOeFvobcjTx6DjAtWTQIDAQABoAAwDQYJKoZI
hvcNAQELBQADggEBAElI3THLWY8GLmlmMZfX+QyqJoTDicx/55K75uNzUTch3ohA
n+sVTcJeQ7ThjDECD/z+8k/zxl56ndJC0GJm21nxcLfkopz+q3Q3PWUMAlnXoPwl
uLYhNkAXgFD3pld1xxJX4hahIC5GQXpI78h7wKbODRl025z0pMpVPFK5lzrvdOcE
quuwQZHdRhCngYhRHRFqFd7Z63m7naEnhQ8k0JofpDrCQfYZbwFOBFMvXnTY4evK
CM4lYu2fUPmG8G2ZwlGVZXduJKW+8mX8bnJIN3hY+OxtXice8/6Ypm7Vm40tAsck
dUp+2+ArrPyKLd16AfyuTaJaR8W95HSwZ9+ClQk=
-----END CERTIFICATE REQUEST-----
